; Function Attrs: nounwind uwtable
define noundef zeroext i1 @lv_cache_evict_one(ptr noundef %0, ptr noundef %1) local_unnamed_addr #0 {
  %.not = icmp eq ptr %0, null
  br i1 %.not, label %.preheader, label %3

.preheader:                                       ; preds = %2, %.preheader
  br label %.preheader

3:                                                ; preds = %2
  %4 = getelementptr inbounds nuw i8, ptr %0, i64 48
  %5 = tail call i32 @lv_mutex_lock(ptr noundef nonnull %4) #5
  %6 = load ptr, ptr %0, align 8, !tbaa !8
  %7 = getelementptr inbounds nuw i8, ptr %6, i64 64
  %8 = load ptr, ptr %7, align 8, !tbaa !22
  %9 = tail call ptr %8(ptr noundef nonnull %0, ptr noundef %1) #5
  %10 = icmp ne ptr %9, null
  br i1 %10, label %11, label %cache_evict_one_internal_no_lock.exit

11:                                               ; preds = %3
  %12 = load ptr, ptr %0, align 8, !tbaa !8
  %13 = getelementptr inbounds nuw i8, ptr %12, i64 40
  %14 = load ptr, ptr %13, align 8, !tbaa !23
  tail call void %14(ptr noundef nonnull %0, ptr noundef nonnull %9, ptr noundef %1) #5
  %15 = getelementptr inbounds nuw i8, ptr %0, i64 40
  %16 = load ptr, ptr %15, align 8, !tbaa !20
  %17 = tail call ptr @lv_cache_entry_get_data(ptr noundef nonnull %9) #5
  tail call void %16(ptr noundef %17, ptr noundef %1) #5
  tail call void @lv_cache_entry_delete(ptr noundef nonnull %9) #5
  br label %cache_evict_one_internal_no_lock.exit

cache_evict_one_internal_no_lock.exit:            ; preds = %3, %11
  %18 = tail call i32 @lv_mutex_unlock(ptr noundef nonnull %4) #5
  ret i1 %10
}